; Function Attrs: nofree nosync nounwind memory(readwrite, inaccessiblemem: none) uwtable
define internal fastcc void @set_parent_node_trav(ptr noundef initializes((8, 16)) %0, ptr noundef %1) unnamed_addr #15 {
  br label %tailrecurse

tailrecurse:                                      ; preds = %tailrecurse.backedge, %2
  %.tr = phi ptr [ %0, %2 ], [ %.tr.be, %tailrecurse.backedge ]
  %.tr28 = phi ptr [ %1, %2 ], [ %.tr, %tailrecurse.backedge ]
  %3 = getelementptr inbounds nuw i8, ptr %.tr, i64 8
  store ptr %.tr28, ptr %3, align 8, !tbaa !20
  %4 = load i32, ptr %.tr, align 8, !tbaa !20
  switch i32 %4, label %.loopexit [
    i32 7, label %.preheader
    i32 8, label %.preheader
    i32 6, label %10
    i32 4, label %tailrecurse.backedge.sink.split
    i32 5, label %16
  ]

.preheader:                                       ; preds = %tailrecurse, %tailrecurse
  br label %5

5:                                                ; preds = %.preheader, %5
  %.0 = phi ptr [ %9, %5 ], [ %.tr, %.preheader ]
  %6 = getelementptr inbounds nuw i8, ptr %.0, i64 16
  %7 = load ptr, ptr %6, align 8, !tbaa !20
  tail call fastcc void @set_parent_node_trav(ptr noundef %7, ptr noundef nonnull %.0)
  %8 = getelementptr inbounds nuw i8, ptr %.0, i64 24
  %9 = load ptr, ptr %8, align 8, !tbaa !20
  %.not27 = icmp eq ptr %9, null
  br i1 %.not27, label %.loopexit, label %5, !llvm.loop !246

10:                                               ; preds = %tailrecurse
  %11 = getelementptr inbounds nuw i8, ptr %.tr, i64 24
  %12 = load i32, ptr %11, align 8, !tbaa !20
  %13 = icmp slt i32 %12, 16
  br i1 %13, label %tailrecurse.backedge.sink.split, label %.loopexit

tailrecurse.backedge.sink.split:                  ; preds = %10, %tailrecurse
  %14 = getelementptr inbounds nuw i8, ptr %.tr, i64 16
  %15 = load ptr, ptr %14, align 8, !tbaa !20
  br label %tailrecurse.backedge

tailrecurse.backedge:                             ; preds = %tailrecurse.backedge.sink.split, %28
  %.tr.be = phi ptr [ %30, %28 ], [ %15, %tailrecurse.backedge.sink.split ]
  br label %tailrecurse

16:                                               ; preds = %tailrecurse
  %17 = getelementptr inbounds nuw i8, ptr %.tr, i64 16
  %18 = load ptr, ptr %17, align 8, !tbaa !20
  %.not = icmp eq ptr %18, null
  br i1 %.not, label %20, label %19

19:                                               ; preds = %16
  tail call fastcc void @set_parent_node_trav(ptr noundef nonnull %18, ptr noundef nonnull %.tr)
  br label %20

20:                                               ; preds = %19, %16
  %21 = getelementptr inbounds nuw i8, ptr %.tr, i64 24
  %22 = load i32, ptr %21, align 8, !tbaa !98
  %23 = icmp eq i32 %22, 3
  br i1 %23, label %24, label %.loopexit

24:                                               ; preds = %20
  %25 = getelementptr inbounds nuw i8, ptr %.tr, i64 32
  %26 = load ptr, ptr %25, align 8, !tbaa !20
  %.not25 = icmp eq ptr %26, null
  br i1 %.not25, label %28, label %27

27:                                               ; preds = %24
  tail call fastcc void @set_parent_node_trav(ptr noundef nonnull %26, ptr noundef nonnull %.tr)
  br label %28

28:                                               ; preds = %27, %24
  %29 = getelementptr inbounds nuw i8, ptr %.tr, i64 40
  %30 = load ptr, ptr %29, align 8, !tbaa !20
  %.not26 = icmp eq ptr %30, null
  br i1 %.not26, label %.loopexit, label %tailrecurse.backedge

.loopexit:                                        ; preds = %20, %28, %tailrecurse, %10, %5
  ret void
}